target datalayout = "e-m:e-p270:32:32-p271:32:32-p272:64:64-i64:64-i128:128-f80:128-n8:16:32:64-S128"
target triple = "x86_64-pc-linux-gnu"

%struct.AVFormatContext = type { ptr, ptr, ptr, ptr, ptr, i32, i32, ptr, i32, ptr, i32, ptr, ptr, i64, i64, i64, i32, i32, i32, i64, i64, ptr, i32, i32, ptr, i32, i32, i32, i32, ptr, i64, i32, i32, %struct.AVIOInterruptCB, i32, i32, i32, i32, i64, i32, i32, i32, i32, i32, i32, i32, i32, i32, i32, i32, i32, i64, i32, i32, i32, i32, i32, ptr, ptr, ptr, ptr, i32, ptr, ptr, ptr, ptr, i32, ptr, ptr, i64, ptr, ptr, ptr, i64 }
%struct.AVIOInterruptCB = type { ptr, ptr }
%struct.HashContext = type { ptr, ptr, ptr, i32, i32 }

; Function Attrs: nounwind uwtable
define internal i32 @streamhash_init(ptr noundef %0) #0 {
  %2 = alloca i32, align 4
  %3 = alloca ptr, align 8
  %4 = alloca i32, align 4
  %5 = alloca i32, align 4
  %6 = alloca ptr, align 8
  %7 = alloca i32, align 4
  store ptr %0, ptr %3, align 8, !tbaa !4
  call void @llvm.lifetime.start.p0(i64 4, ptr %4) #5
  call void @llvm.lifetime.start.p0(i64 4, ptr %5) #5
  call void @llvm.lifetime.start.p0(i64 8, ptr %6) #5
  %8 = load ptr, ptr %3, align 8, !tbaa !4
  %9 = getelementptr inbounds nuw %struct.AVFormatContext, ptr %8, i32 0, i32 3
  %10 = load ptr, ptr %9, align 8, !tbaa !11
  store ptr %10, ptr %6, align 8, !tbaa !28
  %11 = load ptr, ptr %6, align 8, !tbaa !28
  %12 = getelementptr inbounds nuw %struct.HashContext, ptr %11, i32 0, i32 3
  store i32 1, ptr %12, align 8, !tbaa !33
  %13 = load ptr, ptr %3, align 8, !tbaa !4
  %14 = getelementptr inbounds nuw %struct.AVFormatContext, ptr %13, i32 0, i32 6
  %15 = load i32, ptr %14, align 4, !tbaa !43
  %16 = zext i32 %15 to i64
  %17 = call noalias ptr @av_calloc(i64 noundef %16, i64 noundef 8)
  %18 = load ptr, ptr %6, align 8, !tbaa !28
  %19 = getelementptr inbounds nuw %struct.HashContext, ptr %18, i32 0, i32 1
  store ptr %17, ptr %19, align 8, !tbaa !30
  %20 = load ptr, ptr %6, align 8, !tbaa !28
  %21 = getelementptr inbounds nuw %struct.HashContext, ptr %20, i32 0, i32 1
  %22 = load ptr, ptr %21, align 8, !tbaa !30
  %23 = icmp ne ptr %22, null
  br i1 %23, label %25, label %24

24:                                               ; preds = %1
  store i32 -12, ptr %2, align 4
  store i32 1, ptr %7, align 4
  br label %59

25:                                               ; preds = %1
  store i32 0, ptr %5, align 4, !tbaa !44
  br label %26

26:                                               ; preds = %55, %25
  %27 = load i32, ptr %5, align 4, !tbaa !44
  %28 = load ptr, ptr %3, align 8, !tbaa !4
  %29 = getelementptr inbounds nuw %struct.AVFormatContext, ptr %28, i32 0, i32 6
  %30 = load i32, ptr %29, align 4, !tbaa !43
  %31 = icmp ult i32 %27, %30
  br i1 %31, label %32, label %58

32:                                               ; preds = %26
  %33 = load ptr, ptr %6, align 8, !tbaa !28
  %34 = getelementptr inbounds nuw %struct.HashContext, ptr %33, i32 0, i32 1
  %35 = load ptr, ptr %34, align 8, !tbaa !30
  %36 = load i32, ptr %5, align 4, !tbaa !44
  %37 = sext i32 %36 to i64
  %38 = getelementptr inbounds ptr, ptr %35, i64 %37
  %39 = load ptr, ptr %6, align 8, !tbaa !28
  %40 = getelementptr inbounds nuw %struct.HashContext, ptr %39, i32 0, i32 2
  %41 = load ptr, ptr %40, align 8, !tbaa !57
  %42 = call i32 @av_hash_alloc(ptr noundef %38, ptr noundef %41)
  store i32 %42, ptr %4, align 4, !tbaa !44
  %43 = load i32, ptr %4, align 4, !tbaa !44
  %44 = icmp slt i32 %43, 0
  br i1 %44, label %45, label %47

45:                                               ; preds = %32
  %46 = load i32, ptr %4, align 4, !tbaa !44
  store i32 %46, ptr %2, align 4
  store i32 1, ptr %7, align 4
  br label %59

47:                                               ; preds = %32
  %48 = load ptr, ptr %6, align 8, !tbaa !28
  %49 = getelementptr inbounds nuw %struct.HashContext, ptr %48, i32 0, i32 1
  %50 = load ptr, ptr %49, align 8, !tbaa !30
  %51 = load i32, ptr %5, align 4, !tbaa !44
  %52 = sext i32 %51 to i64
  %53 = getelementptr inbounds ptr, ptr %50, i64 %52
  %54 = load ptr, ptr %53, align 8, !tbaa !39
  call void @av_hash_init(ptr noundef %54)
  br label %55

55:                                               ; preds = %47
  %56 = load i32, ptr %5, align 4, !tbaa !44
  %57 = add nsw i32 %56, 1
  store i32 %57, ptr %5, align 4, !tbaa !44
  br label %26, !llvm.loop !59

58:                                               ; preds = %26
  store i32 0, ptr %2, align 4
  store i32 1, ptr %7, align 4
  br label %59

59:                                               ; preds = %58, %45, %24
  call void @llvm.lifetime.end.p0(i64 8, ptr %6) #5
  call void @llvm.lifetime.end.p0(i64 4, ptr %5) #5
  call void @llvm.lifetime.end.p0(i64 4, ptr %4) #5
  %60 = load i32, ptr %2, align 4
  ret i32 %60
}