; Function Attrs: nounwind uwtable
define internal range(i32 -2147483648, 1) i32 @streamhash_init(ptr noundef readonly captures(none) %0) #0 {
  %2 = getelementptr inbounds nuw i8, ptr %0, i64 24
  %3 = load ptr, ptr %2, align 8, !tbaa !4
  %4 = getelementptr inbounds nuw i8, ptr %3, i64 24
  store i32 1, ptr %4, align 8, !tbaa !27
  %5 = getelementptr inbounds nuw i8, ptr %0, i64 44
  %6 = load i32, ptr %5, align 4, !tbaa !37
  %7 = zext i32 %6 to i64
  %8 = tail call noalias ptr @av_calloc(i64 noundef %7, i64 noundef 8) #6
  %9 = getelementptr inbounds nuw i8, ptr %3, i64 8
  store ptr %8, ptr %9, align 8, !tbaa !24
  %.not = icmp eq ptr %8, null
  br i1 %.not, label %.loopexit, label %.preheader

.preheader:                                       ; preds = %1
  %10 = load i32, ptr %5, align 4, !tbaa !37
  %.not20 = icmp eq i32 %10, 0
  br i1 %.not20, label %.loopexit, label %.lr.ph

.lr.ph:                                           ; preds = %.preheader
  %11 = getelementptr inbounds nuw i8, ptr %3, i64 16
  br label %12

12:                                               ; preds = %.lr.ph, %18
  %indvars.iv = phi i64 [ 0, %.lr.ph ], [ %indvars.iv.next, %18 ]
  %13 = load ptr, ptr %9, align 8, !tbaa !24
  %14 = getelementptr inbounds nuw ptr, ptr %13, i64 %indvars.iv
  %15 = load ptr, ptr %11, align 8, !tbaa !50
  %16 = tail call i32 @av_hash_alloc(ptr noundef %14, ptr noundef %15) #6
  %17 = icmp slt i32 %16, 0
  br i1 %17, label %.loopexit, label %18

18:                                               ; preds = %12
  %19 = load ptr, ptr %9, align 8, !tbaa !24
  %20 = getelementptr inbounds nuw ptr, ptr %19, i64 %indvars.iv
  %21 = load ptr, ptr %20, align 8, !tbaa !33
  tail call void @av_hash_init(ptr noundef %21) #6
  %indvars.iv.next = add nuw nsw i64 %indvars.iv, 1
  %22 = load i32, ptr %5, align 4, !tbaa !37
  %23 = zext i32 %22 to i64
  %24 = icmp samesign ult i64 %indvars.iv.next, %23
  br i1 %24, label %12, label %.loopexit, !llvm.loop !52

.loopexit:                                        ; preds = %12, %18, %.preheader, %1
  %.0 = phi i32 [ -12, %1 ], [ 0, %.preheader ], [ %16, %12 ], [ 0, %18 ]
  ret i32 %.0
}